target datalayout = "e-m:e-p270:32:32-p271:32:32-p272:64:64-i64:64-i128:128-f80:128-n8:16:32:64-S128"
target triple = "x86_64-pc-linux-gnu"

%struct.tag_arguments_tag = type { i32, i32, ptr, ptr, ptr }

; Function Attrs: nounwind uwtable
define void @html_tag_arg_free(ptr noundef %0) #0 {
  %2 = alloca ptr, align 8
  %3 = alloca i32, align 4
  store ptr %0, ptr %2, align 8, !tbaa !3
  call void @llvm.lifetime.start.p0(i64 4, ptr %3) #12
  store i32 0, ptr %3, align 4, !tbaa !14
  br label %4

4:                                                ; preds = %58, %1
  %5 = load i32, ptr %3, align 4, !tbaa !14
  %6 = load ptr, ptr %2, align 8, !tbaa !3
  %7 = getelementptr inbounds nuw %struct.tag_arguments_tag, ptr %6, i32 0, i32 0
  %8 = load i32, ptr %7, align 8, !tbaa !10
  %9 = icmp slt i32 %5, %8
  br i1 %9, label %10, label %61

10:                                               ; preds = %4
  %11 = load ptr, ptr %2, align 8, !tbaa !3
  %12 = getelementptr inbounds nuw %struct.tag_arguments_tag, ptr %11, i32 0, i32 2
  %13 = load ptr, ptr %12, align 8, !tbaa !16
  %14 = load i32, ptr %3, align 4, !tbaa !14
  %15 = sext i32 %14 to i64
  %16 = getelementptr inbounds ptr, ptr %13, i64 %15
  %17 = load ptr, ptr %16, align 8, !tbaa !8
  call void @free(ptr noundef %17) #12
  %18 = load ptr, ptr %2, align 8, !tbaa !3
  %19 = getelementptr inbounds nuw %struct.tag_arguments_tag, ptr %18, i32 0, i32 3
  %20 = load ptr, ptr %19, align 8, !tbaa !17
  %21 = load i32, ptr %3, align 4, !tbaa !14
  %22 = sext i32 %21 to i64
  %23 = getelementptr inbounds ptr, ptr %20, i64 %22
  %24 = load ptr, ptr %23, align 8, !tbaa !8
  %25 = icmp ne ptr %24, null
  br i1 %25, label %26, label %34

26:                                               ; preds = %10
  %27 = load ptr, ptr %2, align 8, !tbaa !3
  %28 = getelementptr inbounds nuw %struct.tag_arguments_tag, ptr %27, i32 0, i32 3
  %29 = load ptr, ptr %28, align 8, !tbaa !17
  %30 = load i32, ptr %3, align 4, !tbaa !14
  %31 = sext i32 %30 to i64
  %32 = getelementptr inbounds ptr, ptr %29, i64 %31
  %33 = load ptr, ptr %32, align 8, !tbaa !8
  call void @free(ptr noundef %33) #12
  br label %34

34:                                               ; preds = %26, %10
  %35 = load ptr, ptr %2, align 8, !tbaa !3
  %36 = getelementptr inbounds nuw %struct.tag_arguments_tag, ptr %35, i32 0, i32 4
  %37 = load ptr, ptr %36, align 8, !tbaa !19
  %38 = icmp ne ptr %37, null
  br i1 %38, label %39, label %57

39:                                               ; preds = %34
  %40 = load ptr, ptr %2, align 8, !tbaa !3
  %41 = getelementptr inbounds nuw %struct.tag_arguments_tag, ptr %40, i32 0, i32 4
  %42 = load ptr, ptr %41, align 8, !tbaa !19
  %43 = load i32, ptr %3, align 4, !tbaa !14
  %44 = sext i32 %43 to i64
  %45 = getelementptr inbounds ptr, ptr %42, i64 %44
  %46 = load ptr, ptr %45, align 8, !tbaa !8
  %47 = icmp ne ptr %46, null
  br i1 %47, label %48, label %56

48:                                               ; preds = %39
  %49 = load ptr, ptr %2, align 8, !tbaa !3
  %50 = getelementptr inbounds nuw %struct.tag_arguments_tag, ptr %49, i32 0, i32 4
  %51 = load ptr, ptr %50, align 8, !tbaa !19
  %52 = load i32, ptr %3, align 4, !tbaa !14
  %53 = sext i32 %52 to i64
  %54 = getelementptr inbounds ptr, ptr %51, i64 %53
  %55 = load ptr, ptr %54, align 8, !tbaa !8
  call void @free(ptr noundef %55) #12
  br label %56

56:                                               ; preds = %48, %39
  br label %57

57:                                               ; preds = %56, %34
  br label %58

58:                                               ; preds = %57
  %59 = load i32, ptr %3, align 4, !tbaa !14
  %60 = add nsw i32 %59, 1
  store i32 %60, ptr %3, align 4, !tbaa !14
  br label %4

61:                                               ; preds = %4
  %62 = load ptr, ptr %2, align 8, !tbaa !3
  %63 = getelementptr inbounds nuw %struct.tag_arguments_tag, ptr %62, i32 0, i32 2
  %64 = load ptr, ptr %63, align 8, !tbaa !16
  %65 = icmp ne ptr %64, null
  br i1 %65, label %66, label %70

66:                                               ; preds = %61
  %67 = load ptr, ptr %2, align 8, !tbaa !3
  %68 = getelementptr inbounds nuw %struct.tag_arguments_tag, ptr %67, i32 0, i32 2
  %69 = load ptr, ptr %68, align 8, !tbaa !16
  call void @free(ptr noundef %69) #12
  br label %70

70:                                               ; preds = %66, %61
  %71 = load ptr, ptr %2, align 8, !tbaa !3
  %72 = getelementptr inbounds nuw %struct.tag_arguments_tag, ptr %71, i32 0, i32 3
  %73 = load ptr, ptr %72, align 8, !tbaa !17
  %74 = icmp ne ptr %73, null
  br i1 %74, label %75, label %79

75:                                               ; preds = %70
  %76 = load ptr, ptr %2, align 8, !tbaa !3
  %77 = getelementptr inbounds nuw %struct.tag_arguments_tag, ptr %76, i32 0, i32 3
  %78 = load ptr, ptr %77, align 8, !tbaa !17
  call void @free(ptr noundef %78) #12
  br label %79

79:                                               ; preds = %75, %70
  %80 = load ptr, ptr %2, align 8, !tbaa !3
  %81 = getelementptr inbounds nuw %struct.tag_arguments_tag, ptr %80, i32 0, i32 4
  %82 = load ptr, ptr %81, align 8, !tbaa !19
  %83 = icmp ne ptr %82, null
  br i1 %83, label %84, label %88

84:                                               ; preds = %79
  %85 = load ptr, ptr %2, align 8, !tbaa !3
  %86 = getelementptr inbounds nuw %struct.tag_arguments_tag, ptr %85, i32 0, i32 4
  %87 = load ptr, ptr %86, align 8, !tbaa !19
  call void @free(ptr noundef %87) #12
  br label %88

88:                                               ; preds = %84, %79
  %89 = load ptr, ptr %2, align 8, !tbaa !3
  %90 = getelementptr inbounds nuw %struct.tag_arguments_tag, ptr %89, i32 0, i32 4
  store ptr null, ptr %90, align 8, !tbaa !19
  %91 = load ptr, ptr %2, align 8, !tbaa !3
  %92 = getelementptr inbounds nuw %struct.tag_arguments_tag, ptr %91, i32 0, i32 3
  store ptr null, ptr %92, align 8, !tbaa !17
  %93 = load ptr, ptr %2, align 8, !tbaa !3
  %94 = getelementptr inbounds nuw %struct.tag_arguments_tag, ptr %93, i32 0, i32 2
  store ptr null, ptr %94, align 8, !tbaa !16
  %95 = load ptr, ptr %2, align 8, !tbaa !3
  %96 = getelementptr inbounds nuw %struct.tag_arguments_tag, ptr %95, i32 0, i32 0
  store i32 0, ptr %96, align 8, !tbaa !10
  call void @llvm.lifetime.end.p0(i64 4, ptr %3) #12
  ret void
}