; Function Attrs: nounwind uwtable
define void @html_tag_arg_free(ptr noundef captures(none) %0) local_unnamed_addr #0 {
  %2 = load i32, ptr %0, align 8, !tbaa !3
  %3 = icmp sgt i32 %2, 0
  br i1 %3, label %.lr.ph, label %._crit_edge

.lr.ph:                                           ; preds = %1
  %4 = getelementptr inbounds nuw i8, ptr %0, i64 8
  %5 = getelementptr inbounds nuw i8, ptr %0, i64 16
  %6 = getelementptr inbounds nuw i8, ptr %0, i64 24
  br label %7

7:                                                ; preds = %.lr.ph, %21
  %indvars.iv = phi i64 [ 0, %.lr.ph ], [ %indvars.iv.next, %21 ]
  %8 = load ptr, ptr %4, align 8, !tbaa !10
  %9 = getelementptr inbounds nuw ptr, ptr %8, i64 %indvars.iv
  %10 = load ptr, ptr %9, align 8, !tbaa !14
  tail call void @free(ptr noundef %10) #17
  %11 = load ptr, ptr %5, align 8, !tbaa !11
  %12 = getelementptr inbounds nuw ptr, ptr %11, i64 %indvars.iv
  %13 = load ptr, ptr %12, align 8, !tbaa !14
  %.not31 = icmp eq ptr %13, null
  br i1 %.not31, label %15, label %14

14:                                               ; preds = %7
  tail call void @free(ptr noundef nonnull %13) #17
  br label %15

15:                                               ; preds = %14, %7
  %16 = load ptr, ptr %6, align 8, !tbaa !13
  %.not32 = icmp eq ptr %16, null
  br i1 %.not32, label %21, label %17

17:                                               ; preds = %15
  %18 = getelementptr inbounds nuw ptr, ptr %16, i64 %indvars.iv
  %19 = load ptr, ptr %18, align 8, !tbaa !14
  %.not33 = icmp eq ptr %19, null
  br i1 %.not33, label %21, label %20

20:                                               ; preds = %17
  tail call void @free(ptr noundef nonnull %19) #17
  br label %21

21:                                               ; preds = %15, %20, %17
  %indvars.iv.next = add nuw nsw i64 %indvars.iv, 1
  %22 = load i32, ptr %0, align 8, !tbaa !3
  %23 = sext i32 %22 to i64
  %24 = icmp slt i64 %indvars.iv.next, %23
  br i1 %24, label %7, label %._crit_edge

._crit_edge:                                      ; preds = %21, %1
  %25 = getelementptr inbounds nuw i8, ptr %0, i64 8
  %26 = load ptr, ptr %25, align 8, !tbaa !10
  %.not = icmp eq ptr %26, null
  br i1 %.not, label %28, label %27

27:                                               ; preds = %._crit_edge
  tail call void @free(ptr noundef nonnull %26) #17
  br label %28

28:                                               ; preds = %27, %._crit_edge
  %29 = getelementptr inbounds nuw i8, ptr %0, i64 16
  %30 = load ptr, ptr %29, align 8, !tbaa !11
  %.not29 = icmp eq ptr %30, null
  br i1 %.not29, label %32, label %31

31:                                               ; preds = %28
  tail call void @free(ptr noundef nonnull %30) #17
  br label %32

32:                                               ; preds = %31, %28
  %33 = getelementptr inbounds nuw i8, ptr %0, i64 24
  %34 = load ptr, ptr %33, align 8, !tbaa !13
  %.not30 = icmp eq ptr %34, null
  br i1 %.not30, label %36, label %35

35:                                               ; preds = %32
  tail call void @free(ptr noundef nonnull %34) #17
  br label %36

36:                                               ; preds = %35, %32
  store i32 0, ptr %0, align 8, !tbaa !3
  tail call void @llvm.memset.p0.i64(ptr noundef nonnull align 8 dereferenceable(24) %25, i8 0, i64 24, i1 false)
  ret void
}